target datalayout = "e-m:e-p270:32:32-p271:32:32-p272:64:64-i64:64-i128:128-f80:128-n8:16:32:64-S128"
target triple = "x86_64-pc-linux-gnu"

%struct.SDL_Surface = type { i32, i32, i32, i32, i32, ptr, i32, ptr, i32, i32, ptr, i32, ptr, i32, ptr, i32, %struct.SDL_Rect, %struct.SDL_BlitMap }
%struct.SDL_Rect = type { i32, i32, i32, i32 }
%struct.SDL_BlitMap = type { i32, ptr, ptr, %struct.SDL_BlitInfo, i32, i32 }
%struct.SDL_BlitInfo = type { ptr, ptr, i32, i32, i32, i32, ptr, ptr, i32, i32, i32, i32, ptr, ptr, ptr, ptr, ptr, ptr, i32, i32, i8, i8, i8, i8 }
%struct.SDL_PixelFormatDetails = type { i32, i8, i8, [2 x i8], i32, i32, i32, i32, i8, i8, i8, i8, i8, i8, i8, i8 }

@.str = private unnamed_addr constant [26 x i8] c"Parameter '%s' is invalid\00", align 1
@.str.1 = private unnamed_addr constant [21 x i8] c"SDL_DrawPoint(): dst\00", align 1
@.str.2 = private unnamed_addr constant [44 x i8] c"SDL_DrawPoint(): Unsupported surface format\00", align 1
@.str.3 = private unnamed_addr constant [32 x i8] c"That operation is not supported\00", align 1

; Function Attrs: nounwind uwtable
define hidden zeroext i1 @SDL_DrawPoint(ptr noundef %0, i32 noundef %1, i32 noundef %2, i32 noundef %3) #0 {
  %5 = alloca i1, align 1
  %6 = alloca ptr, align 8
  %7 = alloca i32, align 4
  %8 = alloca i32, align 4
  %9 = alloca i32, align 4
  store ptr %0, ptr %6, align 8
  store i32 %1, ptr %7, align 4
  store i32 %2, ptr %8, align 4
  store i32 %3, ptr %9, align 4
  %10 = load ptr, ptr %6, align 8
  %11 = call zeroext i1 @SDL_SurfaceValid(ptr noundef %10)
  br i1 %11, label %14, label %12

12:                                               ; preds = %4
  %13 = call zeroext i1 (ptr, ...) @SDL_SetError_REAL(ptr noundef @.str, ptr noundef @.str.1)
  store i1 %13, ptr %5, align 1
  br label %123

14:                                               ; preds = %4
  %15 = load ptr, ptr %6, align 8
  %16 = getelementptr inbounds nuw %struct.SDL_Surface, ptr %15, i32 0, i32 10
  %17 = load ptr, ptr %16, align 8
  %18 = getelementptr inbounds nuw %struct.SDL_PixelFormatDetails, ptr %17, i32 0, i32 1
  %19 = load i8, ptr %18, align 4
  %20 = zext i8 %19 to i32
  %21 = icmp slt i32 %20, 8
  br i1 %21, label %22, label %24

22:                                               ; preds = %14
  %23 = call zeroext i1 (ptr, ...) @SDL_SetError_REAL(ptr noundef @.str.2)
  store i1 %23, ptr %5, align 1
  br label %123

24:                                               ; preds = %14
  %25 = load i32, ptr %7, align 4
  %26 = load ptr, ptr %6, align 8
  %27 = getelementptr inbounds nuw %struct.SDL_Surface, ptr %26, i32 0, i32 16
  %28 = getelementptr inbounds nuw %struct.SDL_Rect, ptr %27, i32 0, i32 0
  %29 = load i32, ptr %28, align 4
  %30 = icmp slt i32 %25, %29
  br i1 %30, label %62, label %31

31:                                               ; preds = %24
  %32 = load i32, ptr %8, align 4
  %33 = load ptr, ptr %6, align 8
  %34 = getelementptr inbounds nuw %struct.SDL_Surface, ptr %33, i32 0, i32 16
  %35 = getelementptr inbounds nuw %struct.SDL_Rect, ptr %34, i32 0, i32 1
  %36 = load i32, ptr %35, align 4
  %37 = icmp slt i32 %32, %36
  br i1 %37, label %62, label %38

38:                                               ; preds = %31
  %39 = load i32, ptr %7, align 4
  %40 = load ptr, ptr %6, align 8
  %41 = getelementptr inbounds nuw %struct.SDL_Surface, ptr %40, i32 0, i32 16
  %42 = getelementptr inbounds nuw %struct.SDL_Rect, ptr %41, i32 0, i32 0
  %43 = load i32, ptr %42, align 4
  %44 = load ptr, ptr %6, align 8
  %45 = getelementptr inbounds nuw %struct.SDL_Surface, ptr %44, i32 0, i32 16
  %46 = getelementptr inbounds nuw %struct.SDL_Rect, ptr %45, i32 0, i32 2
  %47 = load i32, ptr %46, align 4
  %48 = add nsw i32 %43, %47
  %49 = icmp sge i32 %39, %48
  br i1 %49, label %62, label %50

50:                                               ; preds = %38
  %51 = load i32, ptr %8, align 4
  %52 = load ptr, ptr %6, align 8
  %53 = getelementptr inbounds nuw %struct.SDL_Surface, ptr %52, i32 0, i32 16
  %54 = getelementptr inbounds nuw %struct.SDL_Rect, ptr %53, i32 0, i32 1
  %55 = load i32, ptr %54, align 4
  %56 = load ptr, ptr %6, align 8
  %57 = getelementptr inbounds nuw %struct.SDL_Surface, ptr %56, i32 0, i32 16
  %58 = getelementptr inbounds nuw %struct.SDL_Rect, ptr %57, i32 0, i32 3
  %59 = load i32, ptr %58, align 4
  %60 = add nsw i32 %55, %59
  %61 = icmp sge i32 %51, %60
  br i1 %61, label %62, label %63

62:                                               ; preds = %50, %38, %31, %24
  store i1 true, ptr %5, align 1
  br label %123

63:                                               ; preds = %50
  %64 = load ptr, ptr %6, align 8
  %65 = getelementptr inbounds nuw %struct.SDL_Surface, ptr %64, i32 0, i32 10
  %66 = load ptr, ptr %65, align 8
  %67 = getelementptr inbounds nuw %struct.SDL_PixelFormatDetails, ptr %66, i32 0, i32 2
  %68 = load i8, ptr %67, align 1
  %69 = zext i8 %68 to i32
  switch i32 %69, label %122 [
    i32 1, label %70
    i32 2, label %87
    i32 3, label %104
    i32 4, label %106
  ]

70:                                               ; preds = %63
  %71 = load i32, ptr %9, align 4
  %72 = trunc i32 %71 to i8
  %73 = load ptr, ptr %6, align 8
  %74 = getelementptr inbounds nuw %struct.SDL_Surface, ptr %73, i32 0, i32 5
  %75 = load ptr, ptr %74, align 8
  %76 = load i32, ptr %8, align 4
  %77 = load ptr, ptr %6, align 8
  %78 = getelementptr inbounds nuw %struct.SDL_Surface, ptr %77, i32 0, i32 4
  %79 = load i32, ptr %78, align 8
  %80 = mul nsw i32 %76, %79
  %81 = sext i32 %80 to i64
  %82 = getelementptr inbounds i8, ptr %75, i64 %81
  %83 = load i32, ptr %7, align 4
  %84 = mul nsw i32 %83, 1
  %85 = sext i32 %84 to i64
  %86 = getelementptr inbounds i8, ptr %82, i64 %85
  store i8 %72, ptr %86, align 1
  br label %122

87:                                               ; preds = %63
  %88 = load i32, ptr %9, align 4
  %89 = trunc i32 %88 to i16
  %90 = load ptr, ptr %6, align 8
  %91 = getelementptr inbounds nuw %struct.SDL_Surface, ptr %90, i32 0, i32 5
  %92 = load ptr, ptr %91, align 8
  %93 = load i32, ptr %8, align 4
  %94 = load ptr, ptr %6, align 8
  %95 = getelementptr inbounds nuw %struct.SDL_Surface, ptr %94, i32 0, i32 4
  %96 = load i32, ptr %95, align 8
  %97 = mul nsw i32 %93, %96
  %98 = sext i32 %97 to i64
  %99 = getelementptr inbounds i8, ptr %92, i64 %98
  %100 = load i32, ptr %7, align 4
  %101 = mul nsw i32 %100, 2
  %102 = sext i32 %101 to i64
  %103 = getelementptr inbounds i8, ptr %99, i64 %102
  store i16 %89, ptr %103, align 2
  br label %122

104:                                              ; preds = %63
  %105 = call zeroext i1 (ptr, ...) @SDL_SetError_REAL(ptr noundef @.str.3)
  store i1 %105, ptr %5, align 1
  br label %123

106:                                              ; preds = %63
  %107 = load i32, ptr %9, align 4
  %108 = load ptr, ptr %6, align 8
  %109 = getelementptr inbounds nuw %struct.SDL_Surface, ptr %108, i32 0, i32 5
  %110 = load ptr, ptr %109, align 8
  %111 = load i32, ptr %8, align 4
  %112 = load ptr, ptr %6, align 8
  %113 = getelementptr inbounds nuw %struct.SDL_Surface, ptr %112, i32 0, i32 4
  %114 = load i32, ptr %113, align 8
  %115 = mul nsw i32 %111, %114
  %116 = sext i32 %115 to i64
  %117 = getelementptr inbounds i8, ptr %110, i64 %116
  %118 = load i32, ptr %7, align 4
  %119 = mul nsw i32 %118, 4
  %120 = sext i32 %119 to i64
  %121 = getelementptr inbounds i8, ptr %117, i64 %120
  store i32 %107, ptr %121, align 4
  br label %122

122:                                              ; preds = %63, %106, %87, %70
  store i1 true, ptr %5, align 1
  br label %123

123:                                              ; preds = %122, %104, %62, %22, %12
  %124 = load i1, ptr %5, align 1
  ret i1 %124
}