; Function Attrs: nounwind uwtable
define hidden zeroext i1 @SDL_DrawPoint(ptr noundef %0, i32 noundef %1, i32 noundef %2, i32 noundef %3) local_unnamed_addr #0 {
  %5 = tail call zeroext i1 @SDL_SurfaceValid(ptr noundef %0) #2
  br i1 %5, label %8, label %6

6:                                                ; preds = %4
  %7 = tail call zeroext i1 (ptr, ...) @SDL_SetError_REAL(ptr noundef nonnull @.str, ptr noundef nonnull @.str.1) #2
  br label %71

8:                                                ; preds = %4
  %9 = getelementptr inbounds nuw i8, ptr %0, i64 56
  %10 = load ptr, ptr %9, align 8
  %11 = getelementptr inbounds nuw i8, ptr %10, i64 4
  %12 = load i8, ptr %11, align 4
  %13 = icmp ult i8 %12, 8
  br i1 %13, label %14, label %16

14:                                               ; preds = %8
  %15 = tail call zeroext i1 (ptr, ...) @SDL_SetError_REAL(ptr noundef nonnull @.str.2) #2
  br label %71

16:                                               ; preds = %8
  %17 = getelementptr inbounds nuw i8, ptr %0, i64 100
  %18 = load i32, ptr %17, align 4
  %19 = icmp slt i32 %1, %18
  br i1 %19, label %71, label %20

20:                                               ; preds = %16
  %21 = getelementptr inbounds nuw i8, ptr %0, i64 104
  %22 = load i32, ptr %21, align 4
  %23 = icmp slt i32 %2, %22
  br i1 %23, label %71, label %24

24:                                               ; preds = %20
  %25 = getelementptr inbounds nuw i8, ptr %0, i64 108
  %26 = load i32, ptr %25, align 4
  %27 = add nsw i32 %26, %18
  %.not = icmp slt i32 %1, %27
  br i1 %.not, label %28, label %71

28:                                               ; preds = %24
  %29 = getelementptr inbounds nuw i8, ptr %0, i64 112
  %30 = load i32, ptr %29, align 4
  %31 = add nsw i32 %30, %22
  %.not32 = icmp slt i32 %2, %31
  br i1 %.not32, label %32, label %71

32:                                               ; preds = %28
  %33 = getelementptr inbounds nuw i8, ptr %10, i64 5
  %34 = load i8, ptr %33, align 1
  switch i8 %34, label %71 [
    i8 1, label %35
    i8 2, label %46
    i8 3, label %58
    i8 4, label %60
  ]

35:                                               ; preds = %32
  %36 = trunc i32 %3 to i8
  %37 = getelementptr inbounds nuw i8, ptr %0, i64 24
  %38 = load ptr, ptr %37, align 8
  %39 = getelementptr inbounds nuw i8, ptr %0, i64 16
  %40 = load i32, ptr %39, align 8
  %41 = mul nsw i32 %40, %2
  %42 = sext i32 %41 to i64
  %43 = getelementptr inbounds i8, ptr %38, i64 %42
  %44 = sext i32 %1 to i64
  %45 = getelementptr inbounds i8, ptr %43, i64 %44
  store i8 %36, ptr %45, align 1
  br label %71

46:                                               ; preds = %32
  %47 = trunc i32 %3 to i16
  %48 = getelementptr inbounds nuw i8, ptr %0, i64 24
  %49 = load ptr, ptr %48, align 8
  %50 = getelementptr inbounds nuw i8, ptr %0, i64 16
  %51 = load i32, ptr %50, align 8
  %52 = mul nsw i32 %51, %2
  %53 = sext i32 %52 to i64
  %54 = getelementptr inbounds i8, ptr %49, i64 %53
  %55 = shl nsw i32 %1, 1
  %56 = sext i32 %55 to i64
  %57 = getelementptr inbounds i8, ptr %54, i64 %56
  store i16 %47, ptr %57, align 2
  br label %71

58:                                               ; preds = %32
  %59 = tail call zeroext i1 (ptr, ...) @SDL_SetError_REAL(ptr noundef nonnull @.str.3) #2
  br label %71

60:                                               ; preds = %32
  %61 = getelementptr inbounds nuw i8, ptr %0, i64 24
  %62 = load ptr, ptr %61, align 8
  %63 = getelementptr inbounds nuw i8, ptr %0, i64 16
  %64 = load i32, ptr %63, align 8
  %65 = mul nsw i32 %64, %2
  %66 = sext i32 %65 to i64
  %67 = getelementptr inbounds i8, ptr %62, i64 %66
  %68 = shl nsw i32 %1, 2
  %69 = sext i32 %68 to i64
  %70 = getelementptr inbounds i8, ptr %67, i64 %69
  store i32 %3, ptr %70, align 4
  br label %71

71:                                               ; preds = %32, %35, %46, %60, %16, %20, %24, %28, %58, %14, %6
  %.0 = phi i1 [ %15, %14 ], [ %59, %58 ], [ %7, %6 ], [ true, %28 ], [ true, %24 ], [ true, %20 ], [ true, %16 ], [ true, %60 ], [ true, %46 ], [ true, %35 ], [ true, %32 ]
  ret i1 %.0
}